target datalayout = "e-m:e-p270:32:32-p271:32:32-p272:64:64-i64:64-i128:128-f80:128-n8:16:32:64-S128"
target triple = "x86_64-pc-linux-gnu"

%struct.CordRep = type { %struct.Generic, %union.ConcatOrFunc }
%struct.Generic = type { i8, i8, i8, i8, i64 }
%union.ConcatOrFunc = type { %struct.Concatenation }
%struct.Concatenation = type { ptr, ptr }
%struct.ForestElement = type { ptr, i64 }

@min_len = internal global [48 x i64] zeroinitializer, align 16

; Function Attrs: nounwind uwtable
define internal void @CORD_add_forest(ptr noundef %0, ptr noundef %1, i64 noundef %2) #0 {
  %4 = alloca ptr, align 8
  %5 = alloca ptr, align 8
  %6 = alloca i64, align 8
  %7 = alloca i32, align 4
  %8 = alloca ptr, align 8
  %9 = alloca i64, align 8
  store ptr %0, ptr %4, align 8, !tbaa !3
  store ptr %1, ptr %5, align 8, !tbaa !7
  store i64 %2, ptr %6, align 8, !tbaa !13
  call void @llvm.lifetime.start.p0(i64 4, ptr %7) #9
  store i32 0, ptr %7, align 4, !tbaa !11
  call void @llvm.lifetime.start.p0(i64 8, ptr %8) #9
  store ptr null, ptr %8, align 8, !tbaa !7
  call void @llvm.lifetime.start.p0(i64 8, ptr %9) #9
  store i64 0, ptr %9, align 8, !tbaa !13
  br label %10

10:                                               ; preds = %48, %3
  %11 = load i64, ptr %6, align 8, !tbaa !13
  %12 = load i32, ptr %7, align 4, !tbaa !11
  %13 = add nsw i32 %12, 1
  %14 = sext i32 %13 to i64
  %15 = getelementptr inbounds [48 x i64], ptr @min_len, i64 0, i64 %14
  %16 = load i64, ptr %15, align 8, !tbaa !13
  %17 = icmp ugt i64 %11, %16
  br i1 %17, label %18, label %51

18:                                               ; preds = %10
  %19 = load ptr, ptr %4, align 8, !tbaa !3
  %20 = load i32, ptr %7, align 4, !tbaa !11
  %21 = sext i32 %20 to i64
  %22 = getelementptr inbounds %struct.ForestElement, ptr %19, i64 %21
  %23 = getelementptr inbounds nuw %struct.ForestElement, ptr %22, i32 0, i32 0
  %24 = load ptr, ptr %23, align 8, !tbaa !48
  %25 = icmp ne ptr %24, null
  br i1 %25, label %26, label %48

26:                                               ; preds = %18
  %27 = load ptr, ptr %4, align 8, !tbaa !3
  %28 = load i32, ptr %7, align 4, !tbaa !11
  %29 = sext i32 %28 to i64
  %30 = getelementptr inbounds %struct.ForestElement, ptr %27, i64 %29
  %31 = getelementptr inbounds nuw %struct.ForestElement, ptr %30, i32 0, i32 0
  %32 = load ptr, ptr %31, align 8, !tbaa !48
  %33 = load ptr, ptr %8, align 8, !tbaa !7
  %34 = call ptr @CORD_cat(ptr noundef %32, ptr noundef %33)
  store ptr %34, ptr %8, align 8, !tbaa !7
  %35 = load ptr, ptr %4, align 8, !tbaa !3
  %36 = load i32, ptr %7, align 4, !tbaa !11
  %37 = sext i32 %36 to i64
  %38 = getelementptr inbounds %struct.ForestElement, ptr %35, i64 %37
  %39 = getelementptr inbounds nuw %struct.ForestElement, ptr %38, i32 0, i32 1
  %40 = load i64, ptr %39, align 8, !tbaa !51
  %41 = load i64, ptr %9, align 8, !tbaa !13
  %42 = add i64 %41, %40
  store i64 %42, ptr %9, align 8, !tbaa !13
  %43 = load ptr, ptr %4, align 8, !tbaa !3
  %44 = load i32, ptr %7, align 4, !tbaa !11
  %45 = sext i32 %44 to i64
  %46 = getelementptr inbounds %struct.ForestElement, ptr %43, i64 %45
  %47 = getelementptr inbounds nuw %struct.ForestElement, ptr %46, i32 0, i32 0
  store ptr null, ptr %47, align 8, !tbaa !48
  br label %48

48:                                               ; preds = %26, %18
  %49 = load i32, ptr %7, align 4, !tbaa !11
  %50 = add nsw i32 %49, 1
  store i32 %50, ptr %7, align 4, !tbaa !11
  br label %10, !llvm.loop !71

51:                                               ; preds = %10
  %52 = load ptr, ptr %8, align 8, !tbaa !7
  %53 = load ptr, ptr %5, align 8, !tbaa !7
  %54 = call ptr @CORD_cat(ptr noundef %52, ptr noundef %53)
  store ptr %54, ptr %8, align 8, !tbaa !7
  %55 = load i64, ptr %6, align 8, !tbaa !13
  %56 = load i64, ptr %9, align 8, !tbaa !13
  %57 = add i64 %56, %55
  store i64 %57, ptr %9, align 8, !tbaa !13
  br label %58

58:                                               ; preds = %95, %51
  %59 = load i64, ptr %9, align 8, !tbaa !13
  %60 = load i32, ptr %7, align 4, !tbaa !11
  %61 = sext i32 %60 to i64
  %62 = getelementptr inbounds [48 x i64], ptr @min_len, i64 0, i64 %61
  %63 = load i64, ptr %62, align 8, !tbaa !13
  %64 = icmp uge i64 %59, %63
  br i1 %64, label %65, label %98

65:                                               ; preds = %58
  %66 = load ptr, ptr %4, align 8, !tbaa !3
  %67 = load i32, ptr %7, align 4, !tbaa !11
  %68 = sext i32 %67 to i64
  %69 = getelementptr inbounds %struct.ForestElement, ptr %66, i64 %68
  %70 = getelementptr inbounds nuw %struct.ForestElement, ptr %69, i32 0, i32 0
  %71 = load ptr, ptr %70, align 8, !tbaa !48
  %72 = icmp ne ptr %71, null
  br i1 %72, label %73, label %95

73:                                               ; preds = %65
  %74 = load ptr, ptr %4, align 8, !tbaa !3
  %75 = load i32, ptr %7, align 4, !tbaa !11
  %76 = sext i32 %75 to i64
  %77 = getelementptr inbounds %struct.ForestElement, ptr %74, i64 %76
  %78 = getelementptr inbounds nuw %struct.ForestElement, ptr %77, i32 0, i32 0
  %79 = load ptr, ptr %78, align 8, !tbaa !48
  %80 = load ptr, ptr %8, align 8, !tbaa !7
  %81 = call ptr @CORD_cat(ptr noundef %79, ptr noundef %80)
  store ptr %81, ptr %8, align 8, !tbaa !7
  %82 = load ptr, ptr %4, align 8, !tbaa !3
  %83 = load i32, ptr %7, align 4, !tbaa !11
  %84 = sext i32 %83 to i64
  %85 = getelementptr inbounds %struct.ForestElement, ptr %82, i64 %84
  %86 = getelementptr inbounds nuw %struct.ForestElement, ptr %85, i32 0, i32 1
  %87 = load i64, ptr %86, align 8, !tbaa !51
  %88 = load i64, ptr %9, align 8, !tbaa !13
  %89 = add i64 %88, %87
  store i64 %89, ptr %9, align 8, !tbaa !13
  %90 = load ptr, ptr %4, align 8, !tbaa !3
  %91 = load i32, ptr %7, align 4, !tbaa !11
  %92 = sext i32 %91 to i64
  %93 = getelementptr inbounds %struct.ForestElement, ptr %90, i64 %92
  %94 = getelementptr inbounds nuw %struct.ForestElement, ptr %93, i32 0, i32 0
  store ptr null, ptr %94, align 8, !tbaa !48
  br label %95

95:                                               ; preds = %73, %65
  %96 = load i32, ptr %7, align 4, !tbaa !11
  %97 = add nsw i32 %96, 1
  store i32 %97, ptr %7, align 4, !tbaa !11
  br label %58, !llvm.loop !72

98:                                               ; preds = %58
  %99 = load i32, ptr %7, align 4, !tbaa !11
  %100 = add nsw i32 %99, -1
  store i32 %100, ptr %7, align 4, !tbaa !11
  %101 = load ptr, ptr %8, align 8, !tbaa !7
  %102 = load ptr, ptr %4, align 8, !tbaa !3
  %103 = load i32, ptr %7, align 4, !tbaa !11
  %104 = sext i32 %103 to i64
  %105 = getelementptr inbounds %struct.ForestElement, ptr %102, i64 %104
  %106 = getelementptr inbounds nuw %struct.ForestElement, ptr %105, i32 0, i32 0
  store ptr %101, ptr %106, align 8, !tbaa !48
  %107 = load i64, ptr %9, align 8, !tbaa !13
  %108 = load ptr, ptr %4, align 8, !tbaa !3
  %109 = load i32, ptr %7, align 4, !tbaa !11
  %110 = sext i32 %109 to i64
  %111 = getelementptr inbounds %struct.ForestElement, ptr %108, i64 %110
  %112 = getelementptr inbounds nuw %struct.ForestElement, ptr %111, i32 0, i32 1
  store i64 %107, ptr %112, align 8, !tbaa !51
  call void @llvm.lifetime.end.p0(i64 8, ptr %9) #9
  call void @llvm.lifetime.end.p0(i64 8, ptr %8) #9
  call void @llvm.lifetime.end.p0(i64 4, ptr %7) #9
  ret void
}

; Function Attrs: nounwind uwtable
define internal void @CORD_balance_insert(ptr noundef %0, i64 noundef %1, ptr noundef %2) #0 {
  %4 = alloca ptr, align 8
  %5 = alloca i64, align 8
  %6 = alloca ptr, align 8
  %7 = alloca i32, align 4
  %8 = alloca ptr, align 8
  %9 = alloca i64, align 8
  store ptr %0, ptr %4, align 8, !tbaa !7
  store i64 %1, ptr %5, align 8, !tbaa !13
  store ptr %2, ptr %6, align 8, !tbaa !3
  call void @llvm.lifetime.start.p0(i64 4, ptr %7) #9
  %10 = load ptr, ptr %4, align 8, !tbaa !7
  %11 = load i8, ptr %10, align 1, !tbaa !17
  %12 = sext i8 %11 to i32
  %13 = icmp ne i32 %12, 0
  br i1 %13, label %14, label %18

14:                                               ; preds = %3
  %15 = load ptr, ptr %6, align 8, !tbaa !3
  %16 = load ptr, ptr %4, align 8, !tbaa !7
  %17 = load i64, ptr %5, align 8, !tbaa !13
  call void @CORD_add_forest(ptr noundef %15, ptr noundef %16, i64 noundef %17)
  br label %120

18:                                               ; preds = %3
  %19 = load ptr, ptr %4, align 8, !tbaa !7
  %20 = getelementptr inbounds nuw %struct.CordRep, ptr %19, i32 0, i32 0
  %21 = getelementptr inbounds nuw %struct.Generic, ptr %20, i32 0, i32 1
  %22 = load i8, ptr %21, align 1, !tbaa !19
  %23 = sext i8 %22 to i32
  %24 = icmp eq i32 %23, 1
  br i1 %24, label %25, label %115

25:                                               ; preds = %18
  %26 = load ptr, ptr %4, align 8, !tbaa !7
  %27 = getelementptr inbounds nuw %struct.CordRep, ptr %26, i32 0, i32 0
  %28 = getelementptr inbounds nuw %struct.Generic, ptr %27, i32 0, i32 2
  %29 = load i8, ptr %28, align 2, !tbaa !25
  %30 = sext i8 %29 to i32
  store i32 %30, ptr %7, align 4, !tbaa !11
  %31 = icmp sge i32 %30, 48
  br i1 %31, label %39, label %32

32:                                               ; preds = %25
  %33 = load i64, ptr %5, align 8, !tbaa !13
  %34 = load i32, ptr %7, align 4, !tbaa !11
  %35 = sext i32 %34 to i64
  %36 = getelementptr inbounds [48 x i64], ptr @min_len, i64 0, i64 %35
  %37 = load i64, ptr %36, align 8, !tbaa !13
  %38 = icmp ult i64 %33, %37
  br i1 %38, label %39, label %115

39:                                               ; preds = %32, %25
  call void @llvm.lifetime.start.p0(i64 8, ptr %8) #9
  %40 = load ptr, ptr %4, align 8, !tbaa !7
  %41 = getelementptr inbounds nuw %struct.CordRep, ptr %40, i32 0, i32 1
  store ptr %41, ptr %8, align 8, !tbaa !22
  call void @llvm.lifetime.start.p0(i64 8, ptr %9) #9
  %42 = load ptr, ptr %4, align 8, !tbaa !7
  %43 = getelementptr inbounds nuw %struct.CordRep, ptr %42, i32 0, i32 0
  %44 = getelementptr inbounds nuw %struct.Generic, ptr %43, i32 0, i32 3
  %45 = load i8, ptr %44, align 1, !tbaa !35
  %46 = zext i8 %45 to i32
  %47 = icmp ne i32 %46, 0
  br i1 %47, label %48, label %54

48:                                               ; preds = %39
  %49 = load ptr, ptr %4, align 8, !tbaa !7
  %50 = getelementptr inbounds nuw %struct.CordRep, ptr %49, i32 0, i32 0
  %51 = getelementptr inbounds nuw %struct.Generic, ptr %50, i32 0, i32 3
  %52 = load i8, ptr %51, align 1, !tbaa !35
  %53 = zext i8 %52 to i64
  br label %101

54:                                               ; preds = %39
  %55 = load ptr, ptr %4, align 8, !tbaa !7
  %56 = getelementptr inbounds nuw %struct.CordRep, ptr %55, i32 0, i32 1
  %57 = getelementptr inbounds nuw %struct.Concatenation, ptr %56, i32 0, i32 0
  %58 = load ptr, ptr %57, align 8, !tbaa !17
  %59 = load i8, ptr %58, align 1, !tbaa !17
  %60 = sext i8 %59 to i32
  %61 = icmp ne i32 %60, 0
  br i1 %61, label %62, label %91

62:                                               ; preds = %54
  %63 = load ptr, ptr %4, align 8, !tbaa !7
  %64 = getelementptr inbounds nuw %struct.CordRep, ptr %63, i32 0, i32 0
  %65 = getelementptr inbounds nuw %struct.Generic, ptr %64, i32 0, i32 4
  %66 = load i64, ptr %65, align 8, !tbaa !24
  %67 = load ptr, ptr %4, align 8, !tbaa !7
  %68 = getelementptr inbounds nuw %struct.CordRep, ptr %67, i32 0, i32 1
  %69 = getelementptr inbounds nuw %struct.Concatenation, ptr %68, i32 0, i32 1
  %70 = load ptr, ptr %69, align 8, !tbaa !17
  %71 = load i8, ptr %70, align 1, !tbaa !17
  %72 = sext i8 %71 to i32
  %73 = icmp ne i32 %72, 0
  br i1 %73, label %74, label %80

74:                                               ; preds = %62
  %75 = load ptr, ptr %4, align 8, !tbaa !7
  %76 = getelementptr inbounds nuw %struct.CordRep, ptr %75, i32 0, i32 1
  %77 = getelementptr inbounds nuw %struct.Concatenation, ptr %76, i32 0, i32 1
  %78 = load ptr, ptr %77, align 8, !tbaa !17
  %79 = call i64 @strlen(ptr noundef %78) #10
  br label %88

80:                                               ; preds = %62
  %81 = load ptr, ptr %4, align 8, !tbaa !7
  %82 = getelementptr inbounds nuw %struct.CordRep, ptr %81, i32 0, i32 1
  %83 = getelementptr inbounds nuw %struct.Concatenation, ptr %82, i32 0, i32 1
  %84 = load ptr, ptr %83, align 8, !tbaa !17
  %85 = getelementptr inbounds nuw %struct.CordRep, ptr %84, i32 0, i32 0
  %86 = getelementptr inbounds nuw %struct.Generic, ptr %85, i32 0, i32 4
  %87 = load i64, ptr %86, align 8, !tbaa !24
  br label %88

88:                                               ; preds = %80, %74
  %89 = phi i64 [ %79, %74 ], [ %87, %80 ]
  %90 = sub i64 %66, %89
  br label %99

91:                                               ; preds = %54
  %92 = load ptr, ptr %4, align 8, !tbaa !7
  %93 = getelementptr inbounds nuw %struct.CordRep, ptr %92, i32 0, i32 1
  %94 = getelementptr inbounds nuw %struct.Concatenation, ptr %93, i32 0, i32 0
  %95 = load ptr, ptr %94, align 8, !tbaa !17
  %96 = getelementptr inbounds nuw %struct.CordRep, ptr %95, i32 0, i32 0
  %97 = getelementptr inbounds nuw %struct.Generic, ptr %96, i32 0, i32 4
  %98 = load i64, ptr %97, align 8, !tbaa !24
  br label %99

99:                                               ; preds = %91, %88
  %100 = phi i64 [ %90, %88 ], [ %98, %91 ]
  br label %101

101:                                              ; preds = %99, %48
  %102 = phi i64 [ %53, %48 ], [ %100, %99 ]
  store i64 %102, ptr %9, align 8, !tbaa !13
  %103 = load ptr, ptr %8, align 8, !tbaa !22
  %104 = getelementptr inbounds nuw %struct.Concatenation, ptr %103, i32 0, i32 0
  %105 = load ptr, ptr %104, align 8, !tbaa !26
  %106 = load i64, ptr %9, align 8, !tbaa !13
  %107 = load ptr, ptr %6, align 8, !tbaa !3
  call void @CORD_balance_insert(ptr noundef %105, i64 noundef %106, ptr noundef %107)
  %108 = load ptr, ptr %8, align 8, !tbaa !22
  %109 = getelementptr inbounds nuw %struct.Concatenation, ptr %108, i32 0, i32 1
  %110 = load ptr, ptr %109, align 8, !tbaa !28
  %111 = load i64, ptr %5, align 8, !tbaa !13
  %112 = load i64, ptr %9, align 8, !tbaa !13
  %113 = sub i64 %111, %112
  %114 = load ptr, ptr %6, align 8, !tbaa !3
  call void @CORD_balance_insert(ptr noundef %110, i64 noundef %113, ptr noundef %114)
  call void @llvm.lifetime.end.p0(i64 8, ptr %9) #9
  call void @llvm.lifetime.end.p0(i64 8, ptr %8) #9
  br label %119

115:                                              ; preds = %32, %18
  %116 = load ptr, ptr %6, align 8, !tbaa !3
  %117 = load ptr, ptr %4, align 8, !tbaa !7
  %118 = load i64, ptr %5, align 8, !tbaa !13
  call void @CORD_add_forest(ptr noundef %116, ptr noundef %117, i64 noundef %118)
  br label %119

119:                                              ; preds = %115, %101
  br label %120

120:                                              ; preds = %119, %14
  call void @llvm.lifetime.end.p0(i64 4, ptr %7) #9
  ret void
}