; Function Attrs: nounwind uwtable
define internal fastcc void @CORD_balance_insert(ptr noundef %0, i64 noundef %1, ptr noundef nonnull captures(none) %2) unnamed_addr #2 {
  %4 = load i8, ptr %0, align 1, !tbaa !11
  %.not48 = icmp eq i8 %4, 0
  br i1 %.not48, label %.lr.ph, label %.preheader

.preheader:                                       ; preds = %tailrecurse, %3
  %.tr.lcssa = phi ptr [ %0, %3 ], [ %74, %tailrecurse ]
  %.tr43.lcssa = phi i64 [ %1, %3 ], [ %75, %tailrecurse ]
  %5 = load i64, ptr getelementptr inbounds nuw (i8, ptr @min_len, i64 8), align 8, !tbaa !29
  %6 = icmp ugt i64 %.tr43.lcssa, %5
  br i1 %6, label %.lr.ph55, label %._crit_edge

.lr.ph55:                                         ; preds = %.preheader, %14
  %indvars.iv104 = phi i64 [ %indvars.iv.next105, %14 ], [ 0, %.preheader ]
  %indvars.iv102 = phi i64 [ %indvars.iv.next103, %14 ], [ 1, %.preheader ]
  %.0.i54 = phi i64 [ %.1.i, %14 ], [ 0, %.preheader ]
  %.036.i53 = phi ptr [ %.137.i, %14 ], [ null, %.preheader ]
  %7 = getelementptr inbounds nuw %struct.ForestElement, ptr %2, i64 %indvars.iv104
  %8 = load ptr, ptr %7, align 8, !tbaa !32
  %.not46.i = icmp eq ptr %8, null
  br i1 %.not46.i, label %14, label %9

9:                                                ; preds = %.lr.ph55
  %10 = tail call ptr @CORD_cat(ptr noundef nonnull %8, ptr noundef %.036.i53)
  %11 = getelementptr inbounds nuw i8, ptr %7, i64 8
  %12 = load i64, ptr %11, align 8, !tbaa !34
  %13 = add i64 %12, %.0.i54
  store ptr null, ptr %7, align 8, !tbaa !32
  br label %14

14:                                               ; preds = %9, %.lr.ph55
  %.137.i = phi ptr [ %10, %9 ], [ %.036.i53, %.lr.ph55 ]
  %.1.i = phi i64 [ %13, %9 ], [ %.0.i54, %.lr.ph55 ]
  %indvars.iv.next103 = add nuw nsw i64 %indvars.iv102, 1
  %15 = getelementptr inbounds nuw [48 x i64], ptr @min_len, i64 0, i64 %indvars.iv.next103
  %16 = load i64, ptr %15, align 8, !tbaa !29
  %17 = icmp ugt i64 %.tr43.lcssa, %16
  %indvars.iv.next105 = add nuw nsw i64 %indvars.iv104, 1
  br i1 %17, label %.lr.ph55, label %._crit_edge.loopexit, !llvm.loop !45

._crit_edge.loopexit:                             ; preds = %14
  %18 = and i64 %indvars.iv102, 4294967295
  br label %._crit_edge

._crit_edge:                                      ; preds = %._crit_edge.loopexit, %.preheader
  %.040.i.lcssa = phi i64 [ 0, %.preheader ], [ %18, %._crit_edge.loopexit ]
  %.036.i.lcssa = phi ptr [ null, %.preheader ], [ %.137.i, %._crit_edge.loopexit ]
  %.0.i.lcssa = phi i64 [ 0, %.preheader ], [ %.1.i, %._crit_edge.loopexit ]
  %19 = tail call ptr @CORD_cat(ptr noundef %.036.i.lcssa, ptr noundef nonnull %.tr.lcssa)
  %20 = add i64 %.0.i.lcssa, %.tr43.lcssa
  %21 = getelementptr inbounds nuw [48 x i64], ptr @min_len, i64 0, i64 %.040.i.lcssa
  %22 = load i64, ptr %21, align 8, !tbaa !29
  %.not.i59 = icmp ult i64 %20, %22
  br i1 %.not.i59, label %CORD_add_forest.exit, label %.lr.ph64

.lr.ph64:                                         ; preds = %._crit_edge, %30
  %indvars.iv109 = phi i64 [ %indvars.iv.next110, %30 ], [ %.040.i.lcssa, %._crit_edge ]
  %.2.i62 = phi i64 [ %.3.i, %30 ], [ %20, %._crit_edge ]
  %.238.i61 = phi ptr [ %.339.i, %30 ], [ %19, %._crit_edge ]
  %23 = getelementptr inbounds nuw %struct.ForestElement, ptr %2, i64 %indvars.iv109
  %24 = load ptr, ptr %23, align 8, !tbaa !32
  %.not45.i = icmp eq ptr %24, null
  br i1 %.not45.i, label %30, label %25

25:                                               ; preds = %.lr.ph64
  %26 = tail call ptr @CORD_cat(ptr noundef nonnull %24, ptr noundef %.238.i61)
  %27 = getelementptr inbounds nuw i8, ptr %23, i64 8
  %28 = load i64, ptr %27, align 8, !tbaa !34
  %29 = add i64 %28, %.2.i62
  store ptr null, ptr %23, align 8, !tbaa !32
  br label %30

30:                                               ; preds = %25, %.lr.ph64
  %.339.i = phi ptr [ %26, %25 ], [ %.238.i61, %.lr.ph64 ]
  %.3.i = phi i64 [ %29, %25 ], [ %.2.i62, %.lr.ph64 ]
  %indvars.iv.next110 = add nuw nsw i64 %indvars.iv109, 1
  %31 = getelementptr inbounds nuw [48 x i64], ptr @min_len, i64 0, i64 %indvars.iv.next110
  %32 = load i64, ptr %31, align 8, !tbaa !29
  %.not.i = icmp ult i64 %.3.i, %32
  br i1 %.not.i, label %CORD_add_forest.exit, label %.lr.ph64, !llvm.loop !46

.lr.ph:                                           ; preds = %3, %tailrecurse
  %.tr4350 = phi i64 [ %75, %tailrecurse ], [ %1, %3 ]
  %.tr49 = phi ptr [ %74, %tailrecurse ], [ %0, %3 ]
  %33 = getelementptr inbounds nuw i8, ptr %.tr49, i64 1
  %34 = load i8, ptr %33, align 1, !tbaa !13
  %35 = icmp eq i8 %34, 1
  br i1 %35, label %36, label %77

36:                                               ; preds = %.lr.ph
  %37 = getelementptr inbounds nuw i8, ptr %.tr49, i64 2
  %38 = load i8, ptr %37, align 2, !tbaa !18
  %39 = icmp sgt i8 %38, 47
  br i1 %39, label %45, label %40

40:                                               ; preds = %36
  %41 = sext i8 %38 to i64
  %42 = getelementptr inbounds [48 x i64], ptr @min_len, i64 0, i64 %41
  %43 = load i64, ptr %42, align 8, !tbaa !29
  %44 = icmp ult i64 %.tr4350, %43
  br i1 %44, label %45, label %77

45:                                               ; preds = %40, %36
  %46 = getelementptr inbounds nuw i8, ptr %.tr49, i64 16
  %47 = getelementptr inbounds nuw i8, ptr %.tr49, i64 3
  %48 = load i8, ptr %47, align 1, !tbaa !27
  %.not26 = icmp eq i8 %48, 0
  br i1 %.not26, label %51, label %49

49:                                               ; preds = %45
  %50 = zext i8 %48 to i64
  %.pre = load ptr, ptr %46, align 8, !tbaa !19
  br label %tailrecurse

51:                                               ; preds = %45
  %52 = load ptr, ptr %46, align 8, !tbaa !11
  %53 = load i8, ptr %52, align 1, !tbaa !11
  %.not27 = icmp eq i8 %53, 0
  br i1 %.not27, label %68, label %54

54:                                               ; preds = %51
  %55 = getelementptr inbounds nuw i8, ptr %.tr49, i64 8
  %56 = load i64, ptr %55, align 8, !tbaa !17
  %57 = getelementptr inbounds nuw i8, ptr %.tr49, i64 24
  %58 = load ptr, ptr %57, align 8, !tbaa !11
  %59 = load i8, ptr %58, align 1, !tbaa !11
  %.not28 = icmp eq i8 %59, 0
  br i1 %.not28, label %62, label %60

60:                                               ; preds = %54
  %61 = tail call i64 @strlen(ptr noundef nonnull dereferenceable(1) %58) #18
  br label %65

62:                                               ; preds = %54
  %63 = getelementptr inbounds nuw i8, ptr %58, i64 8
  %64 = load i64, ptr %63, align 8, !tbaa !17
  br label %65

65:                                               ; preds = %62, %60
  %66 = phi i64 [ %61, %60 ], [ %64, %62 ]
  %67 = sub i64 %56, %66
  br label %tailrecurse

68:                                               ; preds = %51
  %69 = getelementptr inbounds nuw i8, ptr %52, i64 8
  %70 = load i64, ptr %69, align 8, !tbaa !17
  br label %tailrecurse

tailrecurse:                                      ; preds = %65, %68, %49
  %71 = phi ptr [ %.pre, %49 ], [ %52, %65 ], [ %52, %68 ]
  %72 = phi i64 [ %50, %49 ], [ %67, %65 ], [ %70, %68 ]
  tail call fastcc void @CORD_balance_insert(ptr noundef %71, i64 noundef %72, ptr noundef %2)
  %73 = getelementptr inbounds nuw i8, ptr %.tr49, i64 24
  %74 = load ptr, ptr %73, align 8, !tbaa !22
  %75 = sub i64 %.tr4350, %72
  %76 = load i8, ptr %74, align 1, !tbaa !11
  %.not = icmp eq i8 %76, 0
  br i1 %.not, label %.lr.ph, label %.preheader

77:                                               ; preds = %40, %.lr.ph
  %78 = load i64, ptr getelementptr inbounds nuw (i8, ptr @min_len, i64 8), align 8, !tbaa !29
  %79 = icmp ugt i64 %.tr4350, %78
  br i1 %79, label %.lr.ph72, label %._crit_edge73

.lr.ph72:                                         ; preds = %77, %87
  %indvars.iv94 = phi i64 [ %indvars.iv.next95, %87 ], [ 0, %77 ]
  %indvars.iv = phi i64 [ %indvars.iv.next, %87 ], [ 1, %77 ]
  %.0.i3170 = phi i64 [ %.1.i41, %87 ], [ 0, %77 ]
  %.036.i3069 = phi ptr [ %.137.i40, %87 ], [ null, %77 ]
  %80 = getelementptr inbounds nuw %struct.ForestElement, ptr %2, i64 %indvars.iv94
  %81 = load ptr, ptr %80, align 8, !tbaa !32
  %.not46.i39 = icmp eq ptr %81, null
  br i1 %.not46.i39, label %87, label %82

82:                                               ; preds = %.lr.ph72
  %83 = tail call ptr @CORD_cat(ptr noundef nonnull %81, ptr noundef %.036.i3069)
  %84 = getelementptr inbounds nuw i8, ptr %80, i64 8
  %85 = load i64, ptr %84, align 8, !tbaa !34
  %86 = add i64 %85, %.0.i3170
  store ptr null, ptr %80, align 8, !tbaa !32
  br label %87

87:                                               ; preds = %82, %.lr.ph72
  %.137.i40 = phi ptr [ %83, %82 ], [ %.036.i3069, %.lr.ph72 ]
  %.1.i41 = phi i64 [ %86, %82 ], [ %.0.i3170, %.lr.ph72 ]
  %indvars.iv.next = add nuw nsw i64 %indvars.iv, 1
  %88 = getelementptr inbounds nuw [48 x i64], ptr @min_len, i64 0, i64 %indvars.iv.next
  %89 = load i64, ptr %88, align 8, !tbaa !29
  %90 = icmp ugt i64 %.tr4350, %89
  %indvars.iv.next95 = add nuw nsw i64 %indvars.iv94, 1
  br i1 %90, label %.lr.ph72, label %._crit_edge73.loopexit, !llvm.loop !45

._crit_edge73.loopexit:                           ; preds = %87
  %91 = and i64 %indvars.iv, 4294967295
  br label %._crit_edge73

._crit_edge73:                                    ; preds = %._crit_edge73.loopexit, %77
  %.040.i29.lcssa = phi i64 [ 0, %77 ], [ %91, %._crit_edge73.loopexit ]
  %.036.i30.lcssa = phi ptr [ null, %77 ], [ %.137.i40, %._crit_edge73.loopexit ]
  %.0.i31.lcssa = phi i64 [ 0, %77 ], [ %.1.i41, %._crit_edge73.loopexit ]
  %92 = tail call ptr @CORD_cat(ptr noundef %.036.i30.lcssa, ptr noundef nonnull %.tr49)
  %93 = add i64 %.0.i31.lcssa, %.tr4350
  %94 = getelementptr inbounds nuw [48 x i64], ptr @min_len, i64 0, i64 %.040.i29.lcssa
  %95 = load i64, ptr %94, align 8, !tbaa !29
  %.not.i3577 = icmp ult i64 %93, %95
  br i1 %.not.i3577, label %CORD_add_forest.exit, label %.lr.ph82

.lr.ph82:                                         ; preds = %._crit_edge73, %103
  %indvars.iv99 = phi i64 [ %indvars.iv.next100, %103 ], [ %.040.i29.lcssa, %._crit_edge73 ]
  %.2.i3480 = phi i64 [ %.3.i38, %103 ], [ %93, %._crit_edge73 ]
  %.238.i3379 = phi ptr [ %.339.i37, %103 ], [ %92, %._crit_edge73 ]
  %96 = getelementptr inbounds nuw %struct.ForestElement, ptr %2, i64 %indvars.iv99
  %97 = load ptr, ptr %96, align 8, !tbaa !32
  %.not45.i36 = icmp eq ptr %97, null
  br i1 %.not45.i36, label %103, label %98

98:                                               ; preds = %.lr.ph82
  %99 = tail call ptr @CORD_cat(ptr noundef nonnull %97, ptr noundef %.238.i3379)
  %100 = getelementptr inbounds nuw i8, ptr %96, i64 8
  %101 = load i64, ptr %100, align 8, !tbaa !34
  %102 = add i64 %101, %.2.i3480
  store ptr null, ptr %96, align 8, !tbaa !32
  br label %103

103:                                              ; preds = %98, %.lr.ph82
  %.339.i37 = phi ptr [ %99, %98 ], [ %.238.i3379, %.lr.ph82 ]
  %.3.i38 = phi i64 [ %102, %98 ], [ %.2.i3480, %.lr.ph82 ]
  %indvars.iv.next100 = add nuw nsw i64 %indvars.iv99, 1
  %104 = getelementptr inbounds nuw [48 x i64], ptr @min_len, i64 0, i64 %indvars.iv.next100
  %105 = load i64, ptr %104, align 8, !tbaa !29
  %.not.i35 = icmp ult i64 %.3.i38, %105
  br i1 %.not.i35, label %CORD_add_forest.exit, label %.lr.ph82, !llvm.loop !46

CORD_add_forest.exit:                             ; preds = %103, %30, %._crit_edge73, %._crit_edge
  %.lcssa.sink = phi i64 [ %.040.i.lcssa, %._crit_edge ], [ %.040.i29.lcssa, %._crit_edge73 ], [ %indvars.iv.next110, %30 ], [ %indvars.iv.next100, %103 ]
  %.238.i33.lcssa.sink = phi ptr [ %19, %._crit_edge ], [ %92, %._crit_edge73 ], [ %.339.i, %30 ], [ %.339.i37, %103 ]
  %.2.i34.lcssa.sink = phi i64 [ %20, %._crit_edge ], [ %93, %._crit_edge73 ], [ %.3.i, %30 ], [ %.3.i38, %103 ]
  %106 = getelementptr %struct.ForestElement, ptr %2, i64 %.lcssa.sink
  %107 = getelementptr i8, ptr %106, i64 -16
  store ptr %.238.i33.lcssa.sink, ptr %107, align 8, !tbaa !32
  %108 = getelementptr i8, ptr %106, i64 -8
  store i64 %.2.i34.lcssa.sink, ptr %108, align 8, !tbaa !34
  ret void
}